target datalayout = "e-m:e-p270:32:32-p271:32:32-p272:64:64-i64:64-i128:128-f80:128-n8:16:32:64-S128"
target triple = "x86_64-unknown-linux-gnu"

@_ZN4absl13time_internal4cctz12_GLOBAL__N_17kDigitsE = internal constant [11 x i8] c"0123456789\00", align 1

; Function Attrs: mustprogress nounwind uwtable
define internal noundef ptr @_ZN4absl13time_internal4cctz12_GLOBAL__N_18ParseIntEPKciiPi(ptr noundef %p, i32 noundef %min, i32 noundef %max, ptr noundef %vp) #4 {
entry:
  %retval = alloca ptr, align 8
  %p.addr = alloca ptr, align 8
  %min.addr = alloca i32, align 4
  %max.addr = alloca i32, align 4
  %vp.addr = alloca ptr, align 8
  %value = alloca i32, align 4
  %op = alloca ptr, align 8
  %kMaxInt = alloca i32, align 4
  %dp = alloca ptr, align 8
  %d = alloca i32, align 4
  store ptr %p, ptr %p.addr, align 8
  store i32 %min, ptr %min.addr, align 4
  store i32 %max, ptr %max.addr, align 4
  store ptr %vp, ptr %vp.addr, align 8
  store i32 0, ptr %value, align 4
  %0 = load ptr, ptr %p.addr, align 8
  store ptr %0, ptr %op, align 8
  store i32 2147483647, ptr %kMaxInt, align 4
  br label %for.cond

for.cond:                                         ; preds = %for.inc, %entry
  %1 = load ptr, ptr %p.addr, align 8
  %2 = load i8, ptr %1, align 1
  %conv = sext i8 %2 to i32
  %call = call noundef ptr @strchr(ptr noundef @_ZN4absl13time_internal4cctz12_GLOBAL__N_17kDigitsE, i32 noundef %conv) #6
  store ptr %call, ptr %dp, align 8
  %3 = load ptr, ptr %dp, align 8
  %tobool = icmp ne ptr %3, null
  br i1 %tobool, label %for.body, label %for.end

for.body:                                         ; preds = %for.cond
  %4 = load ptr, ptr %dp, align 8
  %sub.ptr.lhs.cast = ptrtoint ptr %4 to i64
  %5 = ptrtoint ptr @_ZN4absl13time_internal4cctz12_GLOBAL__N_17kDigitsE to i64
  %sub.ptr.sub = sub i64 %sub.ptr.lhs.cast, %5
  %conv1 = trunc i64 %sub.ptr.sub to i32
  store i32 %conv1, ptr %d, align 4
  %6 = load i32, ptr %d, align 4
  %cmp = icmp sge i32 %6, 10
  br i1 %cmp, label %if.then, label %if.end

if.then:                                          ; preds = %for.body
  br label %for.end

if.end:                                           ; preds = %for.body
  %7 = load i32, ptr %value, align 4
  %cmp2 = icmp sgt i32 %7, 214748364
  br i1 %cmp2, label %if.then3, label %if.end4

if.then3:                                         ; preds = %if.end
  store ptr null, ptr %retval, align 8
  br label %return

if.end4:                                          ; preds = %if.end
  %8 = load i32, ptr %value, align 4
  %mul = mul nsw i32 %8, 10
  store i32 %mul, ptr %value, align 4
  %9 = load i32, ptr %value, align 4
  %10 = load i32, ptr %d, align 4
  %sub = sub nsw i32 2147483647, %10
  %cmp5 = icmp sgt i32 %9, %sub
  br i1 %cmp5, label %if.then6, label %if.end7

if.then6:                                         ; preds = %if.end4
  store ptr null, ptr %retval, align 8
  br label %return

if.end7:                                          ; preds = %if.end4
  %11 = load i32, ptr %d, align 4
  %12 = load i32, ptr %value, align 4
  %add = add nsw i32 %12, %11
  store i32 %add, ptr %value, align 4
  br label %for.inc

for.inc:                                          ; preds = %if.end7
  %13 = load ptr, ptr %p.addr, align 8
  %incdec.ptr = getelementptr inbounds i8, ptr %13, i32 1
  store ptr %incdec.ptr, ptr %p.addr, align 8
  br label %for.cond, !llvm.loop !8

for.end:                                          ; preds = %if.then, %for.cond
  %14 = load ptr, ptr %p.addr, align 8
  %15 = load ptr, ptr %op, align 8
  %cmp8 = icmp eq ptr %14, %15
  br i1 %cmp8, label %if.then12, label %lor.lhs.false

lor.lhs.false:                                    ; preds = %for.end
  %16 = load i32, ptr %value, align 4
  %17 = load i32, ptr %min.addr, align 4
  %cmp9 = icmp slt i32 %16, %17
  br i1 %cmp9, label %if.then12, label %lor.lhs.false10

lor.lhs.false10:                                  ; preds = %lor.lhs.false
  %18 = load i32, ptr %value, align 4
  %19 = load i32, ptr %max.addr, align 4
  %cmp11 = icmp sgt i32 %18, %19
  br i1 %cmp11, label %if.then12, label %if.end13

if.then12:                                        ; preds = %lor.lhs.false10, %lor.lhs.false, %for.end
  store ptr null, ptr %retval, align 8
  br label %return

if.end13:                                         ; preds = %lor.lhs.false10
  %20 = load i32, ptr %value, align 4
  %21 = load ptr, ptr %vp.addr, align 8
  store i32 %20, ptr %21, align 4
  %22 = load ptr, ptr %p.addr, align 8
  store ptr %22, ptr %retval, align 8
  br label %return

return:                                           ; preds = %if.end13, %if.then12, %if.then6, %if.then3
  %23 = load ptr, ptr %retval, align 8
  ret ptr %23
}

; Function Attrs: mustprogress uwtable
define internal noundef ptr @_ZN4absl13time_internal4cctz12_GLOBAL__N_111ParseOffsetEPKciiiPl(ptr noundef %p, i32 noundef %min_hour, i32 noundef %max_hour, i32 noundef %sign, ptr noundef %offset) #0 {
entry:
  %retval = alloca ptr, align 8
  %p.addr = alloca ptr, align 8
  %min_hour.addr = alloca i32, align 4
  %max_hour.addr = alloca i32, align 4
  %sign.addr = alloca i32, align 4
  %offset.addr = alloca ptr, align 8
  %hours = alloca i32, align 4
  %minutes = alloca i32, align 4
  %seconds = alloca i32, align 4
  store ptr %p, ptr %p.addr, align 8
  store i32 %min_hour, ptr %min_hour.addr, align 4
  store i32 %max_hour, ptr %max_hour.addr, align 4
  store i32 %sign, ptr %sign.addr, align 4
  store ptr %offset, ptr %offset.addr, align 8
  %0 = load ptr, ptr %p.addr, align 8
  %cmp = icmp eq ptr %0, null
  br i1 %cmp, label %if.then, label %if.end

if.then:                                          ; preds = %entry
  store ptr null, ptr %retval, align 8
  br label %return

if.end:                                           ; preds = %entry
  %1 = load ptr, ptr %p.addr, align 8
  %2 = load i8, ptr %1, align 1
  %conv = sext i8 %2 to i32
  %cmp1 = icmp eq i32 %conv, 43
  br i1 %cmp1, label %if.then4, label %lor.lhs.false

lor.lhs.false:                                    ; preds = %if.end
  %3 = load ptr, ptr %p.addr, align 8
  %4 = load i8, ptr %3, align 1
  %conv2 = sext i8 %4 to i32
  %cmp3 = icmp eq i32 %conv2, 45
  br i1 %cmp3, label %if.then4, label %if.end9

if.then4:                                         ; preds = %lor.lhs.false, %if.end
  %5 = load ptr, ptr %p.addr, align 8
  %incdec.ptr = getelementptr inbounds i8, ptr %5, i32 1
  store ptr %incdec.ptr, ptr %p.addr, align 8
  %6 = load i8, ptr %5, align 1
  %conv5 = sext i8 %6 to i32
  %cmp6 = icmp eq i32 %conv5, 45
  br i1 %cmp6, label %if.then7, label %if.end8

if.then7:                                         ; preds = %if.then4
  %7 = load i32, ptr %sign.addr, align 4
  %sub = sub nsw i32 0, %7
  store i32 %sub, ptr %sign.addr, align 4
  br label %if.end8

if.end8:                                          ; preds = %if.then7, %if.then4
  br label %if.end9

if.end9:                                          ; preds = %if.end8, %lor.lhs.false
  store i32 0, ptr %hours, align 4
  store i32 0, ptr %minutes, align 4
  store i32 0, ptr %seconds, align 4
  %8 = load ptr, ptr %p.addr, align 8
  %9 = load i32, ptr %min_hour.addr, align 4
  %10 = load i32, ptr %max_hour.addr, align 4
  %call = call noundef ptr @_ZN4absl13time_internal4cctz12_GLOBAL__N_18ParseIntEPKciiPi(ptr noundef %8, i32 noundef %9, i32 noundef %10, ptr noundef %hours)
  store ptr %call, ptr %p.addr, align 8
  %11 = load ptr, ptr %p.addr, align 8
  %cmp10 = icmp eq ptr %11, null
  br i1 %cmp10, label %if.then11, label %if.end12

if.then11:                                        ; preds = %if.end9
  store ptr null, ptr %retval, align 8
  br label %return

if.end12:                                         ; preds = %if.end9
  %12 = load ptr, ptr %p.addr, align 8
  %13 = load i8, ptr %12, align 1
  %conv13 = sext i8 %13 to i32
  %cmp14 = icmp eq i32 %conv13, 58
  br i1 %cmp14, label %if.then15, label %if.end29

if.then15:                                        ; preds = %if.end12
  %14 = load ptr, ptr %p.addr, align 8
  %add.ptr = getelementptr inbounds i8, ptr %14, i64 1
  %call16 = call noundef ptr @_ZN4absl13time_internal4cctz12_GLOBAL__N_18ParseIntEPKciiPi(ptr noundef %add.ptr, i32 noundef 0, i32 noundef 59, ptr noundef %minutes)
  store ptr %call16, ptr %p.addr, align 8
  %15 = load ptr, ptr %p.addr, align 8
  %cmp17 = icmp eq ptr %15, null
  br i1 %cmp17, label %if.then18, label %if.end19

if.then18:                                        ; preds = %if.then15
  store ptr null, ptr %retval, align 8
  br label %return

if.end19:                                         ; preds = %if.then15
  %16 = load ptr, ptr %p.addr, align 8
  %17 = load i8, ptr %16, align 1
  %conv20 = sext i8 %17 to i32
  %cmp21 = icmp eq i32 %conv20, 58
  br i1 %cmp21, label %if.then22, label %if.end28

if.then22:                                        ; preds = %if.end19
  %18 = load ptr, ptr %p.addr, align 8
  %add.ptr23 = getelementptr inbounds i8, ptr %18, i64 1
  %call24 = call noundef ptr @_ZN4absl13time_internal4cctz12_GLOBAL__N_18ParseIntEPKciiPi(ptr noundef %add.ptr23, i32 noundef 0, i32 noundef 59, ptr noundef %seconds)
  store ptr %call24, ptr %p.addr, align 8
  %19 = load ptr, ptr %p.addr, align 8
  %cmp25 = icmp eq ptr %19, null
  br i1 %cmp25, label %if.then26, label %if.end27

if.then26:                                        ; preds = %if.then22
  store ptr null, ptr %retval, align 8
  br label %return

if.end27:                                         ; preds = %if.then22
  br label %if.end28

if.end28:                                         ; preds = %if.end27, %if.end19
  br label %if.end29

if.end29:                                         ; preds = %if.end28, %if.end12
  %20 = load i32, ptr %sign.addr, align 4
  %21 = load i32, ptr %hours, align 4
  %mul = mul nsw i32 %21, 60
  %22 = load i32, ptr %minutes, align 4
  %add = add nsw i32 %mul, %22
  %mul30 = mul nsw i32 %add, 60
  %23 = load i32, ptr %seconds, align 4
  %add31 = add nsw i32 %mul30, %23
  %mul32 = mul nsw i32 %20, %add31
  %conv33 = sext i32 %mul32 to i64
  %24 = load ptr, ptr %offset.addr, align 8
  store i64 %conv33, ptr %24, align 8
  %25 = load ptr, ptr %p.addr, align 8
  store ptr %25, ptr %retval, align 8
  br label %return

return:                                           ; preds = %if.end29, %if.then26, %if.then18, %if.then11, %if.then
  %26 = load ptr, ptr %retval, align 8
  ret ptr %26
}