; Function Attrs: mustprogress nofree nounwind memory(argmem: readwrite) uwtable
define internal fastcc noundef ptr @_ZN4absl13time_internal4cctz12_GLOBAL__N_111ParseOffsetEPKciiiPl(ptr noundef readonly %p, i32 noundef range(i32 -167, 1) %min_hour, i32 noundef range(i32 24, 168) %max_hour, i32 noundef range(i32 -1, 2) %sign, ptr noundef writeonly captures(none) %offset) unnamed_addr #2 {
entry:
  %cmp = icmp eq ptr %p, null
  br i1 %cmp, label %return, label %if.end

if.end:                                           ; preds = %entry
  %0 = load i8, ptr %p, align 1
  switch i8 %0, label %if.end9 [
    i8 43, label %if.then4
    i8 45, label %if.then4
  ]

if.then4:                                         ; preds = %if.end, %if.end
  %incdec.ptr = getelementptr inbounds nuw i8, ptr %p, i64 1
  %cmp6 = icmp eq i8 %0, 45
  %sub = sub nsw i32 0, %sign
  %spec.select = select i1 %cmp6, i32 %sub, i32 %sign
  %.pre = load i8, ptr %incdec.ptr, align 1
  br label %if.end9

if.end9:                                          ; preds = %if.then4, %if.end
  %1 = phi i8 [ %0, %if.end ], [ %.pre, %if.then4 ]
  %p.addr.0 = phi ptr [ %p, %if.end ], [ %incdec.ptr, %if.then4 ]
  %sign.addr.0 = phi i32 [ %sign, %if.end ], [ %spec.select, %if.then4 ]
  %conv17.i = sext i8 %1 to i32
  %memchr18.i = tail call ptr @memchr(ptr noundef nonnull dereferenceable(1) @_ZN4absl13time_internal4cctz12_GLOBAL__N_17kDigitsE, i32 %conv17.i, i64 11)
  %tobool.not19.i = icmp eq ptr %memchr18.i, null
  br i1 %tobool.not19.i, label %return, label %for.body.i.preheader

for.body.i.preheader:                             ; preds = %if.end9
  %sub.ptr.lhs.cast.i95 = ptrtoint ptr %memchr18.i to i64
  %2 = trunc i64 %sub.ptr.lhs.cast.i95 to i32
  %conv1.i96 = sub i32 %2, ptrtoint (ptr @_ZN4absl13time_internal4cctz12_GLOBAL__N_17kDigitsE to i32)
  %cmp.i97 = icmp sgt i32 %conv1.i96, 9
  br i1 %cmp.i97, label %for.end.i, label %if.end.i

if.end.i:                                         ; preds = %for.body.i.preheader, %if.end7.i
  %conv1.i100 = phi i32 [ %conv1.i, %if.end7.i ], [ %conv1.i96, %for.body.i.preheader ]
  %value.020.i99 = phi i32 [ %add.i, %if.end7.i ], [ 0, %for.body.i.preheader ]
  %p.addr.021.i98 = phi ptr [ %incdec.ptr.i, %if.end7.i ], [ %p.addr.0, %for.body.i.preheader ]
  %cmp2.i = icmp sgt i32 %value.020.i99, 214748364
  br i1 %cmp2.i, label %return, label %if.end4.i

if.end4.i:                                        ; preds = %if.end.i
  %mul.i = mul nsw i32 %value.020.i99, 10
  %sub.i = sub nsw i32 2147483647, %conv1.i100
  %cmp5.i = icmp sgt i32 %mul.i, %sub.i
  br i1 %cmp5.i, label %return, label %if.end7.i

if.end7.i:                                        ; preds = %if.end4.i
  %add.i = add nsw i32 %conv1.i100, %mul.i
  %incdec.ptr.i = getelementptr inbounds nuw i8, ptr %p.addr.021.i98, i64 1
  %3 = load i8, ptr %incdec.ptr.i, align 1
  %conv.i = sext i8 %3 to i32
  %memchr.i = tail call ptr @memchr(ptr noundef nonnull dereferenceable(1) @_ZN4absl13time_internal4cctz12_GLOBAL__N_17kDigitsE, i32 %conv.i, i64 11)
  %tobool.not.i = icmp eq ptr %memchr.i, null
  %sub.ptr.lhs.cast.i = ptrtoint ptr %memchr.i to i64
  %4 = trunc i64 %sub.ptr.lhs.cast.i to i32
  %conv1.i = sub i32 %4, ptrtoint (ptr @_ZN4absl13time_internal4cctz12_GLOBAL__N_17kDigitsE to i32)
  %cmp.i = icmp sgt i32 %conv1.i, 9
  %or.cond = or i1 %tobool.not.i, %cmp.i
  br i1 %or.cond, label %for.end.i, label %if.end.i, !llvm.loop !7

for.end.i:                                        ; preds = %if.end7.i, %for.body.i.preheader
  %5 = phi i8 [ %1, %for.body.i.preheader ], [ %3, %if.end7.i ]
  %value.0.lcssa.i = phi i32 [ 0, %for.body.i.preheader ], [ %add.i, %if.end7.i ]
  %p.addr.0.lcssa.i = phi ptr [ %p.addr.0, %for.body.i.preheader ], [ %incdec.ptr.i, %if.end7.i ]
  %cmp8.i = icmp eq ptr %p.addr.0.lcssa.i, %p.addr.0
  %cmp9.i = icmp slt i32 %value.0.lcssa.i, %min_hour
  %cmp11.i = icmp sgt i32 %value.0.lcssa.i, %max_hour
  %6 = or i1 %cmp9.i, %cmp11.i
  %or.cond14.i = select i1 %cmp8.i, i1 true, i1 %6
  br i1 %or.cond14.i, label %return, label %if.end12

if.end12:                                         ; preds = %for.end.i
  %cmp14 = icmp eq i8 %5, 58
  br i1 %cmp14, label %if.then15, label %if.end29

if.then15:                                        ; preds = %if.end12
  %add.ptr.ptr = getelementptr inbounds nuw i8, ptr %p.addr.0.lcssa.i, i64 1
  %7 = load i8, ptr %add.ptr.ptr, align 1
  %conv17.i14 = sext i8 %7 to i32
  %memchr18.i15 = tail call ptr @memchr(ptr noundef nonnull dereferenceable(1) @_ZN4absl13time_internal4cctz12_GLOBAL__N_17kDigitsE, i32 %conv17.i14, i64 11)
  %tobool.not19.i16 = icmp eq ptr %memchr18.i15, null
  br i1 %tobool.not19.i16, label %return, label %for.body.i17

for.body.i17:                                     ; preds = %if.then15, %if.end7.i30
  %memchr22.i18 = phi ptr [ %memchr.i34, %if.end7.i30 ], [ %memchr18.i15, %if.then15 ]
  %p.addr.021.i19.idx = phi i64 [ %p.addr.021.i19.add, %if.end7.i30 ], [ 1, %if.then15 ]
  %value.020.i20 = phi i32 [ %add.i31, %if.end7.i30 ], [ 0, %if.then15 ]
  %sub.ptr.lhs.cast.i21 = ptrtoint ptr %memchr22.i18 to i64
  %8 = trunc i64 %sub.ptr.lhs.cast.i21 to i32
  %conv1.i22 = sub i32 %8, ptrtoint (ptr @_ZN4absl13time_internal4cctz12_GLOBAL__N_17kDigitsE to i32)
  %cmp.i23 = icmp sgt i32 %conv1.i22, 9
  br i1 %cmp.i23, label %for.end.i36, label %if.end.i24

if.end.i24:                                       ; preds = %for.body.i17
  %cmp2.i25 = icmp sgt i32 %value.020.i20, 214748364
  br i1 %cmp2.i25, label %return, label %if.end4.i26

if.end4.i26:                                      ; preds = %if.end.i24
  %mul.i27 = mul nsw i32 %value.020.i20, 10
  %sub.i28 = sub nsw i32 2147483647, %conv1.i22
  %cmp5.i29 = icmp sgt i32 %mul.i27, %sub.i28
  br i1 %cmp5.i29, label %return, label %if.end7.i30

if.end7.i30:                                      ; preds = %if.end4.i26
  %add.i31 = add nsw i32 %conv1.i22, %mul.i27
  %p.addr.021.i19.add = add nuw nsw i64 %p.addr.021.i19.idx, 1
  %incdec.ptr.i32.ptr = getelementptr inbounds nuw i8, ptr %p.addr.0.lcssa.i, i64 %p.addr.021.i19.add
  %9 = load i8, ptr %incdec.ptr.i32.ptr, align 1
  %conv.i33 = sext i8 %9 to i32
  %memchr.i34 = tail call ptr @memchr(ptr noundef nonnull dereferenceable(1) @_ZN4absl13time_internal4cctz12_GLOBAL__N_17kDigitsE, i32 %conv.i33, i64 11)
  %tobool.not.i35 = icmp eq ptr %memchr.i34, null
  br i1 %tobool.not.i35, label %for.end.i36, label %for.body.i17, !llvm.loop !7

for.end.i36:                                      ; preds = %if.end7.i30, %for.body.i17
  %value.0.lcssa.i37 = phi i32 [ %add.i31, %if.end7.i30 ], [ %value.020.i20, %for.body.i17 ]
  %p.addr.0.lcssa.i38.idx = phi i64 [ %p.addr.021.i19.add, %if.end7.i30 ], [ %p.addr.021.i19.idx, %for.body.i17 ]
  %p.addr.0.lcssa.i38.ptr = getelementptr inbounds nuw i8, ptr %p.addr.0.lcssa.i, i64 %p.addr.0.lcssa.i38.idx
  %cmp8.i39 = icmp eq i64 %p.addr.0.lcssa.i38.idx, 1
  %10 = icmp ugt i32 %value.0.lcssa.i37, 59
  %or.cond14.i42 = select i1 %cmp8.i39, i1 true, i1 %10
  br i1 %or.cond14.i42, label %return, label %if.end19

if.end19:                                         ; preds = %for.end.i36
  %11 = load i8, ptr %p.addr.0.lcssa.i38.ptr, align 1
  %cmp21 = icmp eq i8 %11, 58
  br i1 %cmp21, label %if.then22, label %if.end29

if.then22:                                        ; preds = %if.end19
  %add.ptr23.ptr = getelementptr inbounds nuw i8, ptr %p.addr.0.lcssa.i38.ptr, i64 1
  %12 = load i8, ptr %add.ptr23.ptr, align 1
  %conv17.i46 = sext i8 %12 to i32
  %memchr18.i47 = tail call ptr @memchr(ptr noundef nonnull dereferenceable(1) @_ZN4absl13time_internal4cctz12_GLOBAL__N_17kDigitsE, i32 %conv17.i46, i64 11)
  %tobool.not19.i48 = icmp eq ptr %memchr18.i47, null
  br i1 %tobool.not19.i48, label %return, label %for.body.i49

for.body.i49:                                     ; preds = %if.then22, %if.end7.i62
  %memchr22.i50 = phi ptr [ %memchr.i66, %if.end7.i62 ], [ %memchr18.i47, %if.then22 ]
  %p.addr.021.i51.idx = phi i64 [ %p.addr.021.i51.add, %if.end7.i62 ], [ 1, %if.then22 ]
  %value.020.i52 = phi i32 [ %add.i63, %if.end7.i62 ], [ 0, %if.then22 ]
  %sub.ptr.lhs.cast.i53 = ptrtoint ptr %memchr22.i50 to i64
  %13 = trunc i64 %sub.ptr.lhs.cast.i53 to i32
  %conv1.i54 = sub i32 %13, ptrtoint (ptr @_ZN4absl13time_internal4cctz12_GLOBAL__N_17kDigitsE to i32)
  %cmp.i55 = icmp sgt i32 %conv1.i54, 9
  br i1 %cmp.i55, label %for.end.i68, label %if.end.i56

if.end.i56:                                       ; preds = %for.body.i49
  %cmp2.i57 = icmp sgt i32 %value.020.i52, 214748364
  br i1 %cmp2.i57, label %return, label %if.end4.i58

if.end4.i58:                                      ; preds = %if.end.i56
  %mul.i59 = mul nsw i32 %value.020.i52, 10
  %sub.i60 = sub nsw i32 2147483647, %conv1.i54
  %cmp5.i61 = icmp sgt i32 %mul.i59, %sub.i60
  br i1 %cmp5.i61, label %return, label %if.end7.i62

if.end7.i62:                                      ; preds = %if.end4.i58
  %add.i63 = add nsw i32 %conv1.i54, %mul.i59
  %p.addr.021.i51.add = add nuw nsw i64 %p.addr.021.i51.idx, 1
  %incdec.ptr.i64.ptr = getelementptr inbounds nuw i8, ptr %p.addr.0.lcssa.i38.ptr, i64 %p.addr.021.i51.add
  %14 = load i8, ptr %incdec.ptr.i64.ptr, align 1
  %conv.i65 = sext i8 %14 to i32
  %memchr.i66 = tail call ptr @memchr(ptr noundef nonnull dereferenceable(1) @_ZN4absl13time_internal4cctz12_GLOBAL__N_17kDigitsE, i32 %conv.i65, i64 11)
  %tobool.not.i67 = icmp eq ptr %memchr.i66, null
  br i1 %tobool.not.i67, label %for.end.i68, label %for.body.i49, !llvm.loop !7

for.end.i68:                                      ; preds = %if.end7.i62, %for.body.i49
  %value.0.lcssa.i69 = phi i32 [ %add.i63, %if.end7.i62 ], [ %value.020.i52, %for.body.i49 ]
  %p.addr.0.lcssa.i70.idx = phi i64 [ %p.addr.021.i51.add, %if.end7.i62 ], [ %p.addr.021.i51.idx, %for.body.i49 ]
  %p.addr.0.lcssa.i70.ptr = getelementptr inbounds nuw i8, ptr %p.addr.0.lcssa.i38.ptr, i64 %p.addr.0.lcssa.i70.idx
  %cmp8.i71 = icmp eq i64 %p.addr.0.lcssa.i70.idx, 1
  %15 = icmp ugt i32 %value.0.lcssa.i69, 59
  %or.cond14.i74 = select i1 %cmp8.i71, i1 true, i1 %15
  br i1 %or.cond14.i74, label %return, label %if.end29

if.end29:                                         ; preds = %for.end.i68, %if.end19, %if.end12
  %minutes.0 = phi i32 [ %value.0.lcssa.i37, %if.end19 ], [ 0, %if.end12 ], [ %value.0.lcssa.i37, %for.end.i68 ]
  %seconds.0 = phi i32 [ 0, %if.end19 ], [ 0, %if.end12 ], [ %value.0.lcssa.i69, %for.end.i68 ]
  %p.addr.1 = phi ptr [ %p.addr.0.lcssa.i38.ptr, %if.end19 ], [ %p.addr.0.lcssa.i, %if.end12 ], [ %p.addr.0.lcssa.i70.ptr, %for.end.i68 ]
  %mul = mul nsw i32 %value.0.lcssa.i, 60
  %add = add nsw i32 %minutes.0, %mul
  %mul30 = mul nsw i32 %add, 60
  %add31 = add nsw i32 %mul30, %seconds.0
  %mul32 = mul nsw i32 %add31, %sign.addr.0
  %conv33 = sext i32 %mul32 to i64
  store i64 %conv33, ptr %offset, align 8
  br label %return

return:                                           ; preds = %if.end4.i, %if.end.i, %if.end4.i26, %if.end.i24, %if.end4.i58, %if.end.i56, %if.then22, %for.end.i68, %if.then15, %for.end.i36, %if.end9, %for.end.i, %entry, %if.end29
  %retval.0 = phi ptr [ %p.addr.1, %if.end29 ], [ null, %entry ], [ null, %for.end.i ], [ null, %if.end9 ], [ null, %for.end.i36 ], [ null, %if.then15 ], [ null, %for.end.i68 ], [ null, %if.then22 ], [ null, %if.end.i56 ], [ null, %if.end4.i58 ], [ null, %if.end.i24 ], [ null, %if.end4.i26 ], [ null, %if.end.i ], [ null, %if.end4.i ]
  ret ptr %retval.0
}